; Function Attrs: mustprogress uwtable
define void @_ZN2cv3Mat6createENS_5Size_IiEEi(ptr noundef nonnull align 8 dereferenceable(96) %0, i64 %1, i32 noundef %2) local_unnamed_addr #1 align 2 {
  %4 = alloca [2 x i32], align 4
  %.sroa.0.0.extract.trunc = trunc i64 %1 to i32
  %.sroa.2.0.extract.shift = lshr i64 %1, 32
  %.sroa.2.0.extract.trunc = trunc nuw i64 %.sroa.2.0.extract.shift to i32
  %5 = and i32 %2, 4095
  %6 = getelementptr inbounds nuw i8, ptr %0, i64 4
  %7 = load i32, ptr %6, align 4, !tbaa !53
  %8 = icmp slt i32 %7, 3
  %9 = getelementptr inbounds nuw i8, ptr %0, i64 8
  %10 = load i32, ptr %9, align 8
  %11 = icmp eq i32 %10, %.sroa.2.0.extract.trunc
  %or.cond.i = select i1 %8, i1 %11, i1 false
  %12 = getelementptr inbounds nuw i8, ptr %0, i64 12
  %13 = load i32, ptr %12, align 4
  %14 = icmp eq i32 %13, %.sroa.0.0.extract.trunc
  %or.cond11.i = select i1 %or.cond.i, i1 %14, i1 false
  br i1 %or.cond11.i, label %15, label %21

15:                                               ; preds = %3
  %16 = load i32, ptr %0, align 8, !tbaa !61
  %17 = and i32 %16, 4095
  %18 = icmp ne i32 %17, %5
  %19 = getelementptr inbounds nuw i8, ptr %0, i64 16
  %20 = load ptr, ptr %19, align 8
  %.not.i = icmp eq ptr %20, null
  %or.cond13.i = select i1 %18, i1 true, i1 %.not.i
  br i1 %or.cond13.i, label %21, label %_ZN2cv3Mat6createEiii.exit

21:                                               ; preds = %15, %3
  call void @llvm.lifetime.start.p0(i64 8, ptr nonnull %4) #24
  store i32 %.sroa.2.0.extract.trunc, ptr %4, align 4, !tbaa !23
  %22 = getelementptr inbounds nuw i8, ptr %4, i64 4
  store i32 %.sroa.0.0.extract.trunc, ptr %22, align 4, !tbaa !23
  call void @_ZN2cv3Mat6createEiPKii(ptr noundef nonnull align 8 dereferenceable(96) %0, i32 noundef 2, ptr noundef nonnull %4, i32 noundef %5)
  call void @llvm.lifetime.end.p0(i64 8, ptr nonnull %4) #24
  br label %_ZN2cv3Mat6createEiii.exit

_ZN2cv3Mat6createEiii.exit:                       ; preds = %15, %21
  ret void
}